target datalayout = "e-m:e-p270:32:32-p271:32:32-p272:64:64-i64:64-i128:128-f80:128-n8:16:32:64-S128"
target triple = "x86_64-pc-linux-gnu"

%struct.ZopfliNode = type { i32, i32, i32, %union.anon }
%union.anon = type { float }

; Function Attrs: nounwind uwtable
define hidden void @BrotliInitZopfliNodes(ptr noundef %0, i64 noundef %1) #0 {
  %3 = alloca ptr, align 8
  %4 = alloca i64, align 8
  %5 = alloca %struct.ZopfliNode, align 4
  %6 = alloca i64, align 8
  store ptr %0, ptr %3, align 8, !tbaa !3
  store i64 %1, ptr %4, align 8, !tbaa !8
  call void @llvm.lifetime.start.p0(i64 16, ptr %5) #9
  call void @llvm.lifetime.start.p0(i64 8, ptr %6) #9
  %7 = getelementptr inbounds nuw %struct.ZopfliNode, ptr %5, i32 0, i32 0
  store i32 1, ptr %7, align 4, !tbaa !10
  %8 = getelementptr inbounds nuw %struct.ZopfliNode, ptr %5, i32 0, i32 1
  store i32 0, ptr %8, align 4, !tbaa !13
  %9 = getelementptr inbounds nuw %struct.ZopfliNode, ptr %5, i32 0, i32 2
  store i32 0, ptr %9, align 4, !tbaa !14
  %10 = getelementptr inbounds nuw %struct.ZopfliNode, ptr %5, i32 0, i32 3
  store float 0x47DFF933C0000000, ptr %10, align 4, !tbaa !15
  store i64 0, ptr %6, align 8, !tbaa !8
  br label %11

11:                                               ; preds = %19, %2
  %12 = load i64, ptr %6, align 8, !tbaa !8
  %13 = load i64, ptr %4, align 8, !tbaa !8
  %14 = icmp ult i64 %12, %13
  br i1 %14, label %15, label %22

15:                                               ; preds = %11
  %16 = load ptr, ptr %3, align 8, !tbaa !3
  %17 = load i64, ptr %6, align 8, !tbaa !8
  %18 = getelementptr inbounds nuw %struct.ZopfliNode, ptr %16, i64 %17
  call void @llvm.memcpy.p0.p0.i64(ptr align 4 %18, ptr align 4 %5, i64 16, i1 false), !tbaa.struct !16
  br label %19

19:                                               ; preds = %15
  %20 = load i64, ptr %6, align 8, !tbaa !8
  %21 = add i64 %20, 1
  store i64 %21, ptr %6, align 8, !tbaa !8
  br label %11, !llvm.loop !18

22:                                               ; preds = %11
  call void @llvm.lifetime.end.p0(i64 8, ptr %6) #9
  call void @llvm.lifetime.end.p0(i64 16, ptr %5) #9
  ret void
}

; Function Attrs: nounwind uwtable
define hidden void @BrotliCreateZopfliBackwardReferences(ptr noundef %0, i64 noundef %1, i64 noundef %2, ptr noundef %3, i64 noundef %4, ptr noundef %5, ptr noundef %6, ptr noundef %7, ptr noundef %8, ptr noundef %9, ptr noundef %10, ptr noundef %11, ptr noundef %12) #0 {
  %14 = alloca ptr, align 8
  %15 = alloca i64, align 8
  %16 = alloca i64, align 8
  %17 = alloca ptr, align 8
  %18 = alloca i64, align 8
  %19 = alloca ptr, align 8
  %20 = alloca ptr, align 8
  %21 = alloca ptr, align 8
  %22 = alloca ptr, align 8
  %23 = alloca ptr, align 8
  %24 = alloca ptr, align 8
  %25 = alloca ptr, align 8
  %26 = alloca ptr, align 8
  %27 = alloca ptr, align 8
  store ptr %0, ptr %14, align 8, !tbaa !57
  store i64 %1, ptr %15, align 8, !tbaa !8
  store i64 %2, ptr %16, align 8, !tbaa !8
  store ptr %3, ptr %17, align 8, !tbaa !59
  store i64 %4, ptr %18, align 8, !tbaa !8
  store ptr %5, ptr %19, align 8, !tbaa !59
  store ptr %6, ptr %20, align 8, !tbaa !24
  store ptr %7, ptr %21, align 8, !tbaa !60
  store ptr %8, ptr %22, align 8, !tbaa !20
  store ptr %9, ptr %23, align 8, !tbaa !22
  store ptr %10, ptr %24, align 8, !tbaa !26
  store ptr %11, ptr %25, align 8, !tbaa !22
  store ptr %12, ptr %26, align 8, !tbaa !22
  call void @llvm.lifetime.start.p0(i64 8, ptr %27) #9
  %28 = load i64, ptr %15, align 8, !tbaa !8
  %29 = add i64 %28, 1
  %30 = icmp ugt i64 %29, 0
  br i1 %30, label %31, label %37

31:                                               ; preds = %13
  %32 = load ptr, ptr %14, align 8, !tbaa !57
  %33 = load i64, ptr %15, align 8, !tbaa !8
  %34 = add i64 %33, 1
  %35 = mul i64 %34, 16
  %36 = call ptr @BrotliAllocate(ptr noundef %32, i64 noundef %35)
  br label %38

37:                                               ; preds = %13
  br label %38

38:                                               ; preds = %37, %31
  %39 = phi ptr [ %36, %31 ], [ null, %37 ]
  store ptr %39, ptr %27, align 8, !tbaa !3
  %40 = load ptr, ptr %27, align 8, !tbaa !3
  %41 = load i64, ptr %15, align 8, !tbaa !8
  %42 = add i64 %41, 1
  call void @BrotliInitZopfliNodes(ptr noundef %40, i64 noundef %42)
  %43 = load ptr, ptr %14, align 8, !tbaa !57
  %44 = load i64, ptr %15, align 8, !tbaa !8
  %45 = load i64, ptr %16, align 8, !tbaa !8
  %46 = load ptr, ptr %17, align 8, !tbaa !59
  %47 = load i64, ptr %18, align 8, !tbaa !8
  %48 = load ptr, ptr %19, align 8, !tbaa !59
  %49 = load ptr, ptr %20, align 8, !tbaa !24
  %50 = load ptr, ptr %22, align 8, !tbaa !20
  %51 = load ptr, ptr %21, align 8, !tbaa !60
  %52 = load ptr, ptr %27, align 8, !tbaa !3
  %53 = call i64 @BrotliZopfliComputeShortestPath(ptr noundef %43, i64 noundef %44, i64 noundef %45, ptr noundef %46, i64 noundef %47, ptr noundef %48, ptr noundef %49, ptr noundef %50, ptr noundef %51, ptr noundef %52)
  %54 = load ptr, ptr %25, align 8, !tbaa !22
  %55 = load i64, ptr %54, align 8, !tbaa !8
  %56 = add i64 %55, %53
  store i64 %56, ptr %54, align 8, !tbaa !8
  %57 = load i64, ptr %15, align 8, !tbaa !8
  %58 = load i64, ptr %16, align 8, !tbaa !8
  %59 = load ptr, ptr %27, align 8, !tbaa !3
  %60 = load ptr, ptr %22, align 8, !tbaa !20
  %61 = load ptr, ptr %23, align 8, !tbaa !22
  %62 = load ptr, ptr %20, align 8, !tbaa !24
  %63 = load ptr, ptr %24, align 8, !tbaa !26
  %64 = load ptr, ptr %26, align 8, !tbaa !22
  call void @BrotliZopfliCreateCommands(i64 noundef %57, i64 noundef %58, ptr noundef %59, ptr noundef %60, ptr noundef %61, ptr noundef %62, ptr noundef %63, ptr noundef %64)
  %65 = load ptr, ptr %14, align 8, !tbaa !57
  %66 = load ptr, ptr %27, align 8, !tbaa !3
  call void @BrotliFree(ptr noundef %65, ptr noundef %66)
  store ptr null, ptr %27, align 8, !tbaa !3
  call void @llvm.lifetime.end.p0(i64 8, ptr %27) #9
  ret void
}